(dp0
S'hr'
p1
ccopy_reg
_reconstructor
p2
(cpymodbus.datastore
ModbusSparseDataBlock
p3
c__builtin__
object
p4
Ntp5
Rp6
(dp7
S'default_value'
p8
I1
sS'values'
p9
(dp10
I0
I1
sI1
I2
sI2
I3
sI3
I4
sI4
I5
sI5
I6
sI6
I7
sI7
I8
sI8
I9
sI9
I10
sI10
I11
sI11
I12
sI12
I13
sI13
I14
sI14
I15
sI15
I16
sI16
I17
sI17
I18
sI18
I19
sI19
I20
sI20
I21
sI21
I22
sI22
I23
sI23
I24
sI24
I25
sI25
I26
sI26
I27
sI27
I28
sI28
I29
sI29
I30
sI30
I31
sI31
I32
sI32
I33
sI33
I34
sI34
I35
sI35
I36
sI36
I37
sI37
I38
sI38
I39
sI39
I40
sI40
I41
sI41
I42
sI42
I43
sI43
I44
sI44
I45
sI45
I46
sI46
I47
sI47
I48
sI48
I49
sI49
I50
sI50
I51
sI51
I52
sI52
I53
sI53
I54
sI54
I55
sI55
I56
sI56
I57
sI57
I58
sI58
I59
sI59
I60
sI60
I61
sI61
I62
sI62
I63
sI63
I64
sI64
I65
sI65
I66
sI66
I67
sI67
I68
sI68
I69
sI69
I70
sI70
I71
sI71
I72
sI72
I73
sI73
I74
sI74
I75
sI75
I76
sI76
I77
sI77
I78
sI78
I79
sI79
I80
sI80
I81
sI81
I82
sI82
I83
sI83
I84
sI84
I85
sI85
I86
sI86
I87
sI87
I88
sI88
I89
sI89
I90
sI90
I91
sI91
I92
sI92
I93
sI93
I94
sI94
I95
sI95
I96
sI96
I97
sI97
I98
sI98
I99
ssS'address'
p11
I0
sbsS'ci'
p12
g2
(g3
g4
Ntp13
Rp14
(dp15
g8
I00
sg9
(dp16
I0
I00
sI1
I00
sI2
I00
sI3
I00
sI4
I00
sI5
I00
sI6
I00
sI7
I00
sI8
I00
sI9
I00
sI10
I00
sI11
I00
sI12
I00
sI13
I00
sI14
I00
sI15
I00
sI16
I00
sI17
I00
sI18
I00
sI19
I00
sI20
I00
sI21
I00
sI22
I00
sI23
I00
sI24
I00
sI25
I00
sI26
I00
sI27
I00
sI28
I00
sI29
I00
sI30
I00
sI31
I00
sI32
I00
sI33
I00
sI34
I00
sI35
I00
sI36
I00
sI37
I00
sI38
I00
sI39
I00
sI40
I00
sI41
I00
sI42
I00
sI43
I00
sI44
I00
sI45
I00
sI46
I00
sI47
I00
sI48
I00
sI49
I00
sI50
I00
sI51
I00
sI52
I00
sI53
I00
sI54
I00
sI55
I00
sI56
I00
sI57
I00
sI58
I00
sI59
I00
sI60
I00
sI61
I00
sI62
I00
sI63
I00
sI64
I00
sI65
I00
sI66
I00
sI67
I00
sI68
I00
sI69
I00
sI70
I00
sI71
I00
sI72
I00
sI73
I00
sI74
I00
sI75
I00
sI76
I00
sI77
I00
sI78
I00
sI79
I00
sI80
I00
sI81
I00
sI82
I00
sI83
I00
sI84
I00
sI85
I00
sI86
I00
sI87
I00
sI88
I00
sI89
I00
sI90
I00
sI91
I00
sI92
I00
sI93
I00
sI94
I00
sI95
I00
sI96
I00
sI97
I00
sI98
I00
ssg11
I0
sbsS'ir'
p17
g2
(g3
g4
Ntp18
Rp19
(dp20
g8
I2
sg9
(dp21
I0
I2
sI1
I4
sI2
I6
sI3
I8
sI4
I10
sI5
I12
sI6
I14
sI7
I16
sI8
I18
sI9
I20
sI10
I22
sI11
I24
sI12
I26
sI13
I28
sI14
I30
sI15
I32
sI16
I34
sI17
I36
sI18
I38
sI19
I40
sI20
I42
sI21
I44
sI22
I46
sI23
I48
sI24
I50
sI25
I52
sI26
I54
sI27
I56
sI28
I58
sI29
I60
sI30
I62
sI31
I64
sI32
I66
sI33
I68
sI34
I70
sI35
I72
sI36
I74
sI37
I76
sI38
I78
sI39
I80
sI40
I82
sI41
I84
sI42
I86
sI43
I88
sI44
I90
sI45
I92
sI46
I94
sI47
I96
sI48
I98
sI49
I100
sI50
I102
sI51
I104
sI52
I106
sI53
I108
sI54
I110
sI55
I112
sI56
I114
sI57
I116
sI58
I118
sI59
I120
sI60
I122
sI61
I124
sI62
I126
sI63
I128
sI64
I130
sI65
I132
sI66
I134
sI67
I136
sI68
I138
sI69
I140
sI70
I142
sI71
I144
sI72
I146
sI73
I148
sI74
I150
sI75
I152
sI76
I154
sI77
I156
sI78
I158
sI79
I160
sI80
I162
sI81
I164
sI82
I166
sI83
I168
sI84
I170
sI85
I172
sI86
I174
sI87
I176
sI88
I178
sI89
I180
sI90
I182
sI91
I184
sI92
I186
sI93
I188
sI94
I190
sI95
I192
sI96
I194
sI97
I196
sI98
I198
ssg11
I0
sbsS'di'
p22
g2
(g3
g4
Ntp23
Rp24
(dp25
g8
I01
sg9
(dp26
I0
I01
sI1
I01
sI2
I01
sI3
I01
sI4
I01
sI5
I01
sI6
I01
sI7
I01
sI8
I01
sI9
I01
sI10
I01
sI11
I01
sI12
I01
sI13
I01
sI14
I01
sI15
I01
sI16
I01
sI17
I01
sI18
I01
sI19
I01
sI20
I01
sI21
I01
sI22
I01
sI23
I01
sI24
I01
sI25
I01
sI26
I01
sI27
I01
sI28
I01
sI29
I01
sI30
I01
sI31
I01
sI32
I01
sI33
I01
sI34
I01
sI35
I01
sI36
I01
sI37
I01
sI38
I01
sI39
I01
sI40
I01
sI41
I01
sI42
I01
sI43
I01
sI44
I01
sI45
I01
sI46
I01
sI47
I01
sI48
I01
sI49
I01
sI50
I01
sI51
I01
sI52
I01
sI53
I01
sI54
I01
sI55
I01
sI56
I01
sI57
I01
sI58
I01
sI59
I01
sI60
I01
sI61
I01
sI62
I01
sI63
I01
sI64
I01
sI65
I01
sI66
I01
sI67
I01
sI68
I01
sI69
I01
sI70
I01
sI71
I01
sI72
I01
sI73
I01
sI74
I01
sI75
I01
sI76
I01
sI77
I01
sI78
I01
sI79
I01
sI80
I01
sI81
I01
sI82
I01
sI83
I01
sI84
I01
sI85
I01
sI86
I01
sI87
I01
sI88
I01
sI89
I01
sI90
I01
sI91
I01
sI92
I01
sI93
I01
sI94
I01
sI95
I01
sI96
I01
sI97
I01
sI98
I01
ssg11
I0
sbs.